; ModuleID = '10/396.c'
source_filename = "10/396.c"
target datalayout = "e-m:e-p270:32:32-p271:32:32-p272:64:64-i64:64-f80:128-n8:16:32:64-S128"
target triple = "x86_64-pc-linux-gnu"

@.str = private unnamed_addr constant [3 x i8] c"%d\00", align 1

; Function Attrs: noinline nounwind uwtable
define dso_local i32 @main() #0 {
  %1 = alloca i32, align 4
  %2 = alloca [25 x i32], align 16
  %3 = alloca i32, align 4
  %4 = alloca [25 x i32], align 16
  %5 = alloca i32, align 4
  %6 = alloca i32, align 4
  %7 = alloca i32, align 4
  store i32 0, i32* %1, align 4
  %8 = call i32 (i8*, ...) @__isoc99_scanf(i8* getelementptr inbounds ([3 x i8], [3 x i8]* @.str, i64 0, i64 0), i32* %3)
  %9 = load i32, i32* %3, align 4
  %10 = sub nsw i32 %9, 1
  %11 = sext i32 %10 to i64
  %12 = getelementptr inbounds [25 x i32], [25 x i32]* %4, i64 0, i64 %11
  store i32 1, i32* %12, align 4
  store i32 0, i32* %6, align 4
  br label %13

13:                                               ; preds = %22, %0
  %14 = load i32, i32* %6, align 4
  %15 = load i32, i32* %3, align 4
  %16 = icmp slt i32 %14, %15
  br i1 %16, label %17, label %25

17:                                               ; preds = %13
  %18 = load i32, i32* %6, align 4
  %19 = sext i32 %18 to i64
  %20 = getelementptr inbounds [25 x i32], [25 x i32]* %2, i64 0, i64 %19
  %21 = call i32 (i8*, ...) @__isoc99_scanf(i8* getelementptr inbounds ([3 x i8], [3 x i8]* @.str, i64 0, i64 0), i32* %20)
  br label %22

22:                                               ; preds = %17
  %23 = load i32, i32* %6, align 4
  %24 = add nsw i32 %23, 1
  store i32 %24, i32* %6, align 4
  br label %13

25:                                               ; preds = %13
  %26 = load i32, i32* %3, align 4
  %27 = sub nsw i32 %26, 2
  store i32 %27, i32* %6, align 4
  br label %28

28:                                               ; preds = %75, %25
  %29 = load i32, i32* %6, align 4
  %30 = icmp sge i32 %29, 0
  br i1 %30, label %31, label %78

31:                                               ; preds = %28
  %32 = load i32, i32* %6, align 4
  %33 = sext i32 %32 to i64
  %34 = getelementptr inbounds [25 x i32], [25 x i32]* %4, i64 0, i64 %33
  store i32 1, i32* %34, align 4
  %35 = load i32, i32* %6, align 4
  %36 = add nsw i32 %35, 1
  store i32 %36, i32* %7, align 4
  br label %37

37:                                               ; preds = %71, %31
  %38 = load i32, i32* %7, align 4
  %39 = load i32, i32* %3, align 4
  %40 = icmp slt i32 %38, %39
  br i1 %40, label %41, label %74

41:                                               ; preds = %37
  %42 = load i32, i32* %6, align 4
  %43 = sext i32 %42 to i64
  %44 = getelementptr inbounds [25 x i32], [25 x i32]* %2, i64 0, i64 %43
  %45 = load i32, i32* %44, align 4
  %46 = load i32, i32* %7, align 4
  %47 = sext i32 %46 to i64
  %48 = getelementptr inbounds [25 x i32], [25 x i32]* %2, i64 0, i64 %47
  %49 = load i32, i32* %48, align 4
  %50 = icmp sge i32 %45, %49
  br i1 %50, label %51, label %70

51:                                               ; preds = %41
  %52 = load i32, i32* %6, align 4
  %53 = sext i32 %52 to i64
  %54 = getelementptr inbounds [25 x i32], [25 x i32]* %4, i64 0, i64 %53
  %55 = load i32, i32* %54, align 4
  %56 = load i32, i32* %7, align 4
  %57 = sext i32 %56 to i64
  %58 = getelementptr inbounds [25 x i32], [25 x i32]* %4, i64 0, i64 %57
  %59 = load i32, i32* %58, align 4
  %60 = icmp sle i32 %55, %59
  br i1 %60, label %61, label %70

61:                                               ; preds = %51
  %62 = load i32, i32* %7, align 4
  %63 = sext i32 %62 to i64
  %64 = getelementptr inbounds [25 x i32], [25 x i32]* %4, i64 0, i64 %63
  %65 = load i32, i32* %64, align 4
  %66 = add nsw i32 %65, 1
  %67 = load i32, i32* %6, align 4
  %68 = sext i32 %67 to i64
  %69 = getelementptr inbounds [25 x i32], [25 x i32]* %4, i64 0, i64 %68
  store i32 %66, i32* %69, align 4
  br label %70

70:                                               ; preds = %61, %51, %41
  br label %71

71:                                               ; preds = %70
  %72 = load i32, i32* %7, align 4
  %73 = add nsw i32 %72, 1
  store i32 %73, i32* %7, align 4
  br label %37

74:                                               ; preds = %37
  br label %75

75:                                               ; preds = %74
  %76 = load i32, i32* %6, align 4
  %77 = add nsw i32 %76, -1
  store i32 %77, i32* %6, align 4
  br label %28

78:                                               ; preds = %28
  store i32 0, i32* %6, align 4
  store i32 0, i32* %5, align 4
  br label %79

79:                                               ; preds = %96, %78
  %80 = load i32, i32* %6, align 4
  %81 = load i32, i32* %3, align 4
  %82 = icmp slt i32 %80, %81
  br i1 %82, label %83, label %99

83:                                               ; preds = %79
  %84 = load i32, i32* %6, align 4
  %85 = sext i32 %84 to i64
  %86 = getelementptr inbounds [25 x i32], [25 x i32]* %4, i64 0, i64 %85
  %87 = load i32, i32* %86, align 4
  %88 = load i32, i32* %5, align 4
  %89 = icmp sgt i32 %87, %88
  br i1 %89, label %90, label %95

90:                                               ; preds = %83
  %91 = load i32, i32* %6, align 4
  %92 = sext i32 %91 to i64
  %93 = getelementptr inbounds [25 x i32], [25 x i32]* %4, i64 0, i64 %92
  %94 = load i32, i32* %93, align 4
  store i32 %94, i32* %5, align 4
  br label %95

95:                                               ; preds = %90, %83
  br label %96

96:                                               ; preds = %95
  %97 = load i32, i32* %6, align 4
  %98 = add nsw i32 %97, 1
  store i32 %98, i32* %6, align 4
  br label %79

99:                                               ; preds = %79
  %100 = load i32, i32* %5, align 4
  %101 = call i32 (i8*, ...) @printf(i8* getelementptr inbounds ([3 x i8], [3 x i8]* @.str, i64 0, i64 0), i32 %100)
  ret i32 1
}

declare dso_local i32 @__isoc99_scanf(i8*, ...) #1

declare dso_local i32 @printf(i8*, ...) #1


!llvm.module.flags = !{!0}
!llvm.ident = !{!1}

!0 = !{i32 1, !"wchar_size", i32 4}
!1 = !{!"clang version 10.0.0-4ubuntu1 "}
